target datalayout = "e-m:e-p270:32:32-p271:32:32-p272:64:64-i64:64-i128:128-f80:128-n8:16:32:64-S128"
target triple = "x86_64-pc-linux-gnu"

%struct.SDL_GPUGraphicsPipelineCreateInfo = type { ptr, ptr, %struct.SDL_GPUVertexInputState, i32, %struct.SDL_GPURasterizerState, %struct.SDL_GPUMultisampleState, %struct.SDL_GPUDepthStencilState, %struct.SDL_GPUGraphicsPipelineTargetInfo, i32 }
%struct.SDL_GPUVertexInputState = type { ptr, i32, ptr, i32 }
%struct.SDL_GPURasterizerState = type { i32, i32, i32, float, float, float, i8, i8, i8, i8 }
%struct.SDL_GPUMultisampleState = type { i32, i32, i8, i8, i8, i8 }
%struct.SDL_GPUDepthStencilState = type { i32, %struct.SDL_GPUStencilOpState, %struct.SDL_GPUStencilOpState, i8, i8, i8, i8, i8, i8, i8, i8 }
%struct.SDL_GPUStencilOpState = type { i32, i32, i32, i32 }
%struct.SDL_GPUGraphicsPipelineTargetInfo = type { ptr, i32, i32, i8, i8, i8, i8 }
%struct.SDL_GPUColorTargetDescription = type { i32, %struct.SDL_GPUColorTargetBlendState }
%struct.SDL_GPUColorTargetBlendState = type { i32, i32, i32, i32, i32, i32, i8, i8, i8, i8, i8 }
%struct.BlitPipelineCacheEntry = type { i32, i32, ptr }

@.str = private unnamed_addr constant [39 x i8] c"Failed to create GPU pipeline for blit\00", align 1

; Function Attrs: nounwind uwtable
define hidden ptr @SDL_GPU_FetchBlitPipeline(ptr noundef %0, i32 noundef %1, i32 noundef %2, ptr noundef %3, ptr noundef %4, ptr noundef %5, ptr noundef %6, ptr noundef %7, ptr noundef %8, ptr noundef %9, ptr noundef %10, ptr noundef %11) #0 {
  %13 = alloca ptr, align 8
  %14 = alloca ptr, align 8
  %15 = alloca i32, align 4
  %16 = alloca i32, align 4
  %17 = alloca ptr, align 8
  %18 = alloca ptr, align 8
  %19 = alloca ptr, align 8
  %20 = alloca ptr, align 8
  %21 = alloca ptr, align 8
  %22 = alloca ptr, align 8
  %23 = alloca ptr, align 8
  %24 = alloca ptr, align 8
  %25 = alloca ptr, align 8
  %26 = alloca %struct.SDL_GPUGraphicsPipelineCreateInfo, align 8
  %27 = alloca %struct.SDL_GPUColorTargetDescription, align 4
  %28 = alloca ptr, align 8
  %29 = alloca i32, align 4
  %30 = alloca i32, align 4
  store ptr %0, ptr %14, align 8
  store i32 %1, ptr %15, align 4
  store i32 %2, ptr %16, align 4
  store ptr %3, ptr %17, align 8
  store ptr %4, ptr %18, align 8
  store ptr %5, ptr %19, align 8
  store ptr %6, ptr %20, align 8
  store ptr %7, ptr %21, align 8
  store ptr %8, ptr %22, align 8
  store ptr %9, ptr %23, align 8
  store ptr %10, ptr %24, align 8
  store ptr %11, ptr %25, align 8
  call void @llvm.lifetime.start.p0(i64 168, ptr %26) #6
  call void @llvm.lifetime.start.p0(i64 36, ptr %27) #6
  call void @llvm.lifetime.start.p0(i64 8, ptr %28) #6
  %31 = load ptr, ptr %24, align 8
  %32 = icmp eq ptr %31, null
  br i1 %32, label %33, label %41

33:                                               ; preds = %12
  %34 = load ptr, ptr %23, align 8
  %35 = load ptr, ptr %34, align 8
  %36 = load i32, ptr %15, align 4
  %37 = zext i32 %36 to i64
  %38 = getelementptr inbounds nuw %struct.BlitPipelineCacheEntry, ptr %35, i64 %37
  %39 = getelementptr inbounds nuw %struct.BlitPipelineCacheEntry, ptr %38, i32 0, i32 2
  %40 = load ptr, ptr %39, align 8
  store ptr %40, ptr %13, align 8
  store i32 1, ptr %29, align 4
  br label %190

41:                                               ; preds = %12
  call void @llvm.lifetime.start.p0(i64 4, ptr %30) #6
  store i32 0, ptr %30, align 4
  br label %42

42:                                               ; preds = %77, %41
  %43 = load i32, ptr %30, align 4
  %44 = load ptr, ptr %24, align 8
  %45 = load i32, ptr %44, align 4
  %46 = icmp ult i32 %43, %45
  br i1 %46, label %48, label %47

47:                                               ; preds = %42
  store i32 2, ptr %29, align 4
  br label %80

48:                                               ; preds = %42
  %49 = load ptr, ptr %23, align 8
  %50 = load ptr, ptr %49, align 8
  %51 = load i32, ptr %30, align 4
  %52 = zext i32 %51 to i64
  %53 = getelementptr inbounds nuw %struct.BlitPipelineCacheEntry, ptr %50, i64 %52
  %54 = getelementptr inbounds nuw %struct.BlitPipelineCacheEntry, ptr %53, i32 0, i32 0
  %55 = load i32, ptr %54, align 8
  %56 = load i32, ptr %15, align 4
  %57 = icmp eq i32 %55, %56
  br i1 %57, label %58, label %76

58:                                               ; preds = %48
  %59 = load ptr, ptr %23, align 8
  %60 = load ptr, ptr %59, align 8
  %61 = load i32, ptr %30, align 4
  %62 = zext i32 %61 to i64
  %63 = getelementptr inbounds nuw %struct.BlitPipelineCacheEntry, ptr %60, i64 %62
  %64 = getelementptr inbounds nuw %struct.BlitPipelineCacheEntry, ptr %63, i32 0, i32 1
  %65 = load i32, ptr %64, align 4
  %66 = load i32, ptr %16, align 4
  %67 = icmp eq i32 %65, %66
  br i1 %67, label %68, label %76

68:                                               ; preds = %58
  %69 = load ptr, ptr %23, align 8
  %70 = load ptr, ptr %69, align 8
  %71 = load i32, ptr %30, align 4
  %72 = zext i32 %71 to i64
  %73 = getelementptr inbounds nuw %struct.BlitPipelineCacheEntry, ptr %70, i64 %72
  %74 = getelementptr inbounds nuw %struct.BlitPipelineCacheEntry, ptr %73, i32 0, i32 2
  %75 = load ptr, ptr %74, align 8
  store ptr %75, ptr %13, align 8
  store i32 1, ptr %29, align 4
  br label %80

76:                                               ; preds = %58, %48
  br label %77

77:                                               ; preds = %76
  %78 = load i32, ptr %30, align 4
  %79 = add i32 %78, 1
  store i32 %79, ptr %30, align 4
  br label %42, !llvm.loop !3

80:                                               ; preds = %68, %47
  call void @llvm.lifetime.end.p0(i64 4, ptr %30) #6
  %81 = load i32, ptr %29, align 4
  switch i32 %81, label %190 [
    i32 2, label %82
  ]

82:                                               ; preds = %80
  call void @llvm.memset.p0.i64(ptr align 8 %26, i8 0, i64 168, i1 false)
  call void @llvm.memset.p0.i64(ptr align 4 %27, i8 0, i64 36, i1 false)
  %83 = getelementptr inbounds nuw %struct.SDL_GPUColorTargetDescription, ptr %27, i32 0, i32 1
  %84 = getelementptr inbounds nuw %struct.SDL_GPUColorTargetBlendState, ptr %83, i32 0, i32 6
  store i8 15, ptr %84, align 4
  %85 = load i32, ptr %16, align 4
  %86 = getelementptr inbounds nuw %struct.SDL_GPUColorTargetDescription, ptr %27, i32 0, i32 0
  store i32 %85, ptr %86, align 4
  %87 = getelementptr inbounds nuw %struct.SDL_GPUGraphicsPipelineCreateInfo, ptr %26, i32 0, i32 7
  %88 = getelementptr inbounds nuw %struct.SDL_GPUGraphicsPipelineTargetInfo, ptr %87, i32 0, i32 0
  store ptr %27, ptr %88, align 8
  %89 = getelementptr inbounds nuw %struct.SDL_GPUGraphicsPipelineCreateInfo, ptr %26, i32 0, i32 7
  %90 = getelementptr inbounds nuw %struct.SDL_GPUGraphicsPipelineTargetInfo, ptr %89, i32 0, i32 1
  store i32 1, ptr %90, align 8
  %91 = getelementptr inbounds nuw %struct.SDL_GPUGraphicsPipelineCreateInfo, ptr %26, i32 0, i32 7
  %92 = getelementptr inbounds nuw %struct.SDL_GPUGraphicsPipelineTargetInfo, ptr %91, i32 0, i32 2
  store i32 58, ptr %92, align 4
  %93 = getelementptr inbounds nuw %struct.SDL_GPUGraphicsPipelineCreateInfo, ptr %26, i32 0, i32 7
  %94 = getelementptr inbounds nuw %struct.SDL_GPUGraphicsPipelineTargetInfo, ptr %93, i32 0, i32 3
  store i8 0, ptr %94, align 8
  %95 = load ptr, ptr %17, align 8
  %96 = getelementptr inbounds nuw %struct.SDL_GPUGraphicsPipelineCreateInfo, ptr %26, i32 0, i32 0
  store ptr %95, ptr %96, align 8
  %97 = load i32, ptr %15, align 4
  %98 = icmp eq i32 %97, 3
  br i1 %98, label %99, label %102

99:                                               ; preds = %82
  %100 = load ptr, ptr %21, align 8
  %101 = getelementptr inbounds nuw %struct.SDL_GPUGraphicsPipelineCreateInfo, ptr %26, i32 0, i32 1
  store ptr %100, ptr %101, align 8
  br label %126

102:                                              ; preds = %82
  %103 = load i32, ptr %15, align 4
  %104 = icmp eq i32 %103, 4
  br i1 %104, label %105, label %108

105:                                              ; preds = %102
  %106 = load ptr, ptr %22, align 8
  %107 = getelementptr inbounds nuw %struct.SDL_GPUGraphicsPipelineCreateInfo, ptr %26, i32 0, i32 1
  store ptr %106, ptr %107, align 8
  br label %125

108:                                              ; preds = %102
  %109 = load i32, ptr %15, align 4
  %110 = icmp eq i32 %109, 1
  br i1 %110, label %111, label %114

111:                                              ; preds = %108
  %112 = load ptr, ptr %19, align 8
  %113 = getelementptr inbounds nuw %struct.SDL_GPUGraphicsPipelineCreateInfo, ptr %26, i32 0, i32 1
  store ptr %112, ptr %113, align 8
  br label %124

114:                                              ; preds = %108
  %115 = load i32, ptr %15, align 4
  %116 = icmp eq i32 %115, 2
  br i1 %116, label %117, label %120

117:                                              ; preds = %114
  %118 = load ptr, ptr %20, align 8
  %119 = getelementptr inbounds nuw %struct.SDL_GPUGraphicsPipelineCreateInfo, ptr %26, i32 0, i32 1
  store ptr %118, ptr %119, align 8
  br label %123

120:                                              ; preds = %114
  %121 = load ptr, ptr %18, align 8
  %122 = getelementptr inbounds nuw %struct.SDL_GPUGraphicsPipelineCreateInfo, ptr %26, i32 0, i32 1
  store ptr %121, ptr %122, align 8
  br label %123

123:                                              ; preds = %120, %117
  br label %124

124:                                              ; preds = %123, %111
  br label %125

125:                                              ; preds = %124, %105
  br label %126

126:                                              ; preds = %125, %99
  %127 = getelementptr inbounds nuw %struct.SDL_GPUGraphicsPipelineCreateInfo, ptr %26, i32 0, i32 5
  %128 = getelementptr inbounds nuw %struct.SDL_GPUMultisampleState, ptr %127, i32 0, i32 0
  store i32 0, ptr %128, align 8
  %129 = getelementptr inbounds nuw %struct.SDL_GPUGraphicsPipelineCreateInfo, ptr %26, i32 0, i32 5
  %130 = getelementptr inbounds nuw %struct.SDL_GPUMultisampleState, ptr %129, i32 0, i32 2
  store i8 0, ptr %130, align 8
  %131 = getelementptr inbounds nuw %struct.SDL_GPUGraphicsPipelineCreateInfo, ptr %26, i32 0, i32 3
  store i32 0, ptr %131, align 8
  %132 = load ptr, ptr %14, align 8
  %133 = call ptr @SDL_CreateGPUGraphicsPipeline_REAL(ptr noundef %132, ptr noundef %26)
  store ptr %133, ptr %28, align 8
  %134 = load ptr, ptr %28, align 8
  %135 = icmp eq ptr %134, null
  br i1 %135, label %136, label %138

136:                                              ; preds = %126
  %137 = call zeroext i1 (ptr, ...) @SDL_SetError_REAL(ptr noundef @.str)
  store ptr null, ptr %13, align 8
  store i32 1, ptr %29, align 4
  br label %190

138:                                              ; preds = %126
  br label %139

139:                                              ; preds = %138
  %140 = load ptr, ptr %24, align 8
  %141 = load i32, ptr %140, align 4
  %142 = add i32 %141, 1
  %143 = load ptr, ptr %25, align 8
  %144 = load i32, ptr %143, align 4
  %145 = icmp uge i32 %142, %144
  br i1 %145, label %146, label %159

146:                                              ; preds = %139
  %147 = load ptr, ptr %25, align 8
  %148 = load i32, ptr %147, align 4
  %149 = mul i32 %148, 2
  %150 = load ptr, ptr %25, align 8
  store i32 %149, ptr %150, align 4
  %151 = load ptr, ptr %23, align 8
  %152 = load ptr, ptr %151, align 8
  %153 = load ptr, ptr %25, align 8
  %154 = load i32, ptr %153, align 4
  %155 = zext i32 %154 to i64
  %156 = mul i64 16, %155
  %157 = call ptr @SDL_realloc_REAL(ptr noundef %152, i64 noundef %156) #9
  %158 = load ptr, ptr %23, align 8
  store ptr %157, ptr %158, align 8
  br label %159

159:                                              ; preds = %146, %139
  br label %160

160:                                              ; preds = %159
  br label %161

161:                                              ; preds = %160
  %162 = load ptr, ptr %28, align 8
  %163 = load ptr, ptr %23, align 8
  %164 = load ptr, ptr %163, align 8
  %165 = load ptr, ptr %24, align 8
  %166 = load i32, ptr %165, align 4
  %167 = zext i32 %166 to i64
  %168 = getelementptr inbounds nuw %struct.BlitPipelineCacheEntry, ptr %164, i64 %167
  %169 = getelementptr inbounds nuw %struct.BlitPipelineCacheEntry, ptr %168, i32 0, i32 2
  store ptr %162, ptr %169, align 8
  %170 = load i32, ptr %15, align 4
  %171 = load ptr, ptr %23, align 8
  %172 = load ptr, ptr %171, align 8
  %173 = load ptr, ptr %24, align 8
  %174 = load i32, ptr %173, align 4
  %175 = zext i32 %174 to i64
  %176 = getelementptr inbounds nuw %struct.BlitPipelineCacheEntry, ptr %172, i64 %175
  %177 = getelementptr inbounds nuw %struct.BlitPipelineCacheEntry, ptr %176, i32 0, i32 0
  store i32 %170, ptr %177, align 8
  %178 = load i32, ptr %16, align 4
  %179 = load ptr, ptr %23, align 8
  %180 = load ptr, ptr %179, align 8
  %181 = load ptr, ptr %24, align 8
  %182 = load i32, ptr %181, align 4
  %183 = zext i32 %182 to i64
  %184 = getelementptr inbounds nuw %struct.BlitPipelineCacheEntry, ptr %180, i64 %183
  %185 = getelementptr inbounds nuw %struct.BlitPipelineCacheEntry, ptr %184, i32 0, i32 1
  store i32 %178, ptr %185, align 4
  %186 = load ptr, ptr %24, align 8
  %187 = load i32, ptr %186, align 4
  %188 = add i32 %187, 1
  store i32 %188, ptr %186, align 4
  %189 = load ptr, ptr %28, align 8
  store ptr %189, ptr %13, align 8
  store i32 1, ptr %29, align 4
  br label %190

190:                                              ; preds = %161, %136, %80, %33
  call void @llvm.lifetime.end.p0(i64 8, ptr %28) #6
  call void @llvm.lifetime.end.p0(i64 36, ptr %27) #6
  call void @llvm.lifetime.end.p0(i64 168, ptr %26) #6
  %191 = load ptr, ptr %13, align 8
  ret ptr %191
}