; Function Attrs: nounwind uwtable
define hidden ptr @SDL_GPU_FetchBlitPipeline(ptr noundef readonly captures(address_is_null) %0, i32 noundef %1, i32 noundef %2, ptr noundef %3, ptr noundef %4, ptr noundef %5, ptr noundef %6, ptr noundef %7, ptr noundef %8, ptr noundef captures(none) %9, ptr noundef captures(address_is_null) %10, ptr noundef captures(none) %11) local_unnamed_addr #0 {
  %13 = alloca %struct.SDL_GPUGraphicsPipelineCreateInfo, align 8
  %14 = alloca %struct.SDL_GPUColorTargetDescription, align 4
  call void @llvm.lifetime.start.p0(i64 168, ptr nonnull %13) #7
  call void @llvm.lifetime.start.p0(i64 36, ptr nonnull %14) #7
  %15 = icmp eq ptr %10, null
  br i1 %15, label %18, label %.preheader

.preheader:                                       ; preds = %12
  %16 = load i32, ptr %10, align 4
  %.not54.not = icmp eq i32 %16, 0
  br i1 %.not54.not, label %._crit_edge, label %.lr.ph

.lr.ph:                                           ; preds = %.preheader
  %17 = load ptr, ptr %9, align 8
  %wide.trip.count = zext i32 %16 to i64
  br label %23

18:                                               ; preds = %12
  %19 = load ptr, ptr %9, align 8
  %20 = zext i32 %1 to i64
  %21 = getelementptr inbounds nuw %struct.BlitPipelineCacheEntry, ptr %19, i64 %20, i32 2
  %22 = load ptr, ptr %21, align 8
  br label %78

23:                                               ; preds = %.lr.ph, %33
  %indvars.iv = phi i64 [ 0, %.lr.ph ], [ %indvars.iv.next, %33 ]
  %24 = getelementptr inbounds nuw %struct.BlitPipelineCacheEntry, ptr %17, i64 %indvars.iv
  %25 = load i32, ptr %24, align 8
  %26 = icmp eq i32 %25, %1
  br i1 %26, label %27, label %33

27:                                               ; preds = %23
  %28 = getelementptr inbounds nuw i8, ptr %24, i64 4
  %29 = load i32, ptr %28, align 4
  %30 = icmp eq i32 %29, %2
  br i1 %30, label %.thread, label %33

.thread:                                          ; preds = %27
  %31 = getelementptr inbounds nuw i8, ptr %24, i64 8
  %32 = load ptr, ptr %31, align 8
  br label %78

33:                                               ; preds = %23, %27
  %indvars.iv.next = add nuw nsw i64 %indvars.iv, 1
  %exitcond.not = icmp eq i64 %indvars.iv.next, %wide.trip.count
  br i1 %exitcond.not, label %._crit_edge, label %23, !llvm.loop !3

._crit_edge:                                      ; preds = %33, %.preheader
  %34 = getelementptr inbounds nuw i8, ptr %13, i64 8
  call void @llvm.memset.p0.i64(ptr noundef nonnull align 8 dereferenceable(160) %34, i8 0, i64 160, i1 false)
  %35 = getelementptr inbounds nuw i8, ptr %14, i64 4
  call void @llvm.memset.p0.i64(ptr noundef nonnull align 4 dereferenceable(32) %35, i8 0, i64 32, i1 false)
  %36 = getelementptr inbounds nuw i8, ptr %14, i64 28
  store i8 15, ptr %36, align 4
  store i32 %2, ptr %14, align 4
  %37 = getelementptr inbounds nuw i8, ptr %13, i64 136
  store ptr %14, ptr %37, align 8
  %38 = getelementptr inbounds nuw i8, ptr %13, i64 144
  store i32 1, ptr %38, align 8
  %39 = getelementptr inbounds nuw i8, ptr %13, i64 148
  store i32 58, ptr %39, align 4
  store ptr %3, ptr %13, align 8
  %40 = getelementptr inbounds nuw i8, ptr %13, i64 8
  switch i32 %1, label %44 [
    i32 3, label %45
    i32 4, label %41
    i32 1, label %42
    i32 2, label %43
  ]

41:                                               ; preds = %._crit_edge
  br label %45

42:                                               ; preds = %._crit_edge
  br label %45

43:                                               ; preds = %._crit_edge
  br label %45

44:                                               ; preds = %._crit_edge
  br label %45

45:                                               ; preds = %._crit_edge, %41, %43, %44, %42
  %.sink = phi ptr [ %8, %41 ], [ %6, %43 ], [ %4, %44 ], [ %5, %42 ], [ %7, %._crit_edge ]
  store ptr %.sink, ptr %40, align 8
  %46 = getelementptr inbounds nuw i8, ptr %13, i64 80
  store i32 0, ptr %46, align 8
  %47 = getelementptr inbounds nuw i8, ptr %13, i64 88
  store i8 0, ptr %47, align 8
  %48 = getelementptr inbounds nuw i8, ptr %13, i64 48
  store i32 0, ptr %48, align 8
  %49 = call ptr @SDL_CreateGPUGraphicsPipeline_REAL(ptr noundef %0, ptr noundef nonnull %13)
  %50 = icmp eq ptr %49, null
  br i1 %50, label %51, label %53

51:                                               ; preds = %45
  %52 = call zeroext i1 (ptr, ...) @SDL_SetError_REAL(ptr noundef nonnull @.str) #7
  br label %78

53:                                               ; preds = %45
  %54 = load i32, ptr %10, align 4
  %55 = add i32 %54, 1
  %56 = load i32, ptr %11, align 4
  %.not52 = icmp ult i32 %55, %56
  br i1 %.not52, label %._crit_edge58, label %57

._crit_edge58:                                    ; preds = %53
  %.pre = load ptr, ptr %9, align 8
  br label %63

57:                                               ; preds = %53
  %58 = shl i32 %56, 1
  store i32 %58, ptr %11, align 4
  %59 = load ptr, ptr %9, align 8
  %60 = zext i32 %58 to i64
  %61 = shl nuw nsw i64 %60, 4
  %62 = call ptr @SDL_realloc_REAL(ptr noundef %59, i64 noundef %61) #12
  store ptr %62, ptr %9, align 8
  %.pre59 = load i32, ptr %10, align 4
  br label %63

63:                                               ; preds = %._crit_edge58, %57
  %64 = phi i32 [ %54, %._crit_edge58 ], [ %.pre59, %57 ]
  %65 = phi ptr [ %.pre, %._crit_edge58 ], [ %62, %57 ]
  %66 = zext i32 %64 to i64
  %67 = getelementptr inbounds nuw %struct.BlitPipelineCacheEntry, ptr %65, i64 %66, i32 2
  store ptr %49, ptr %67, align 8
  %68 = load ptr, ptr %9, align 8
  %69 = load i32, ptr %10, align 4
  %70 = zext i32 %69 to i64
  %71 = getelementptr inbounds nuw %struct.BlitPipelineCacheEntry, ptr %68, i64 %70
  store i32 %1, ptr %71, align 8
  %72 = load ptr, ptr %9, align 8
  %73 = load i32, ptr %10, align 4
  %74 = zext i32 %73 to i64
  %75 = getelementptr inbounds nuw %struct.BlitPipelineCacheEntry, ptr %72, i64 %74, i32 1
  store i32 %2, ptr %75, align 4
  %76 = load i32, ptr %10, align 4
  %77 = add i32 %76, 1
  store i32 %77, ptr %10, align 4
  br label %78

78:                                               ; preds = %.thread, %63, %51, %18
  %.047 = phi ptr [ %22, %18 ], [ null, %51 ], [ %49, %63 ], [ %32, %.thread ]
  call void @llvm.lifetime.end.p0(i64 36, ptr nonnull %14) #7
  call void @llvm.lifetime.end.p0(i64 168, ptr nonnull %13) #7
  ret ptr %.047
}